	.file	"client.c"
	.text
.Ltext0:
	.globl	error
	.type	error, @function
error:
.LFB2:
	.file 1 "client.c"
	.loc 1 14 0
	.cfi_startproc
	pushq	%rbp
	.cfi_def_cfa_offset 16
	.cfi_offset 6, -16
	movq	%rsp, %rbp
	.cfi_def_cfa_register 6
	subq	$16, %rsp
	movq	%rdi, -8(%rbp)
	.loc 1 16 0
	movq	-8(%rbp), %rax
	movq	%rax, %rdi
	call	perror
	.loc 1 18 0
	movl	$-1, %edi
	call	exit
	.cfi_endproc
.LFE2:
	.size	error, .-error
	.section	.rodata
.LC0:
	.string	"usage %s hostname port\n"
.LC1:
	.string	"ERROR opening socket"
.LC2:
	.string	"ERROR, no such host\n"
.LC3:
	.string	"ERROR connecting"
.LC4:
	.string	"Please enter the message: "
.LC5:
	.string	"ERROR writing to socket"
.LC6:
	.string	"ERROR reading from socket"
	.text
	.globl	main
	.type	main, @function
main:
.LFB3:
	.loc 1 29 0
	.cfi_startproc
	pushq	%rbp
	.cfi_def_cfa_offset 16
	.cfi_offset 6, -16
	movq	%rsp, %rbp
	.cfi_def_cfa_register 6
	pushq	%rbx
	subq	$344, %rsp
	.cfi_offset 3, -24
	movl	%edi, -340(%rbp)
	movq	%rsi, -352(%rbp)
	.loc 1 29 0
	movq	%fs:40, %rax
	movq	%rax, -24(%rbp)
	xorl	%eax, %eax
	.loc 1 35 0
	cmpl	$2, -340(%rbp)
	jg	.L3
	.loc 1 36 0
	movq	-352(%rbp), %rax
	movq	(%rax), %rdx
	movq	stderr(%rip), %rax
	movl	$.LC0, %esi
	movq	%rax, %rdi
	movl	$0, %eax
	call	fprintf
	.loc 1 37 0
	movl	$0, %edi
	call	exit
.L3:
	.loc 1 41 0
	movq	-352(%rbp), %rax
	addq	$16, %rax
	movq	(%rax), %rax
	movq	%rax, %rdi
	call	atoi
	movl	%eax, -324(%rbp)
	.loc 1 44 0
	movl	$0, %edx
	movl	$1, %esi
	movl	$2, %edi
	call	socket
	movl	%eax, -320(%rbp)
	.loc 1 48 0
	cmpl	$0, -320(%rbp)
	jns	.L4
	.loc 1 50 0
	movl	$.LC1, %edi
	call	error
.L4:
	.loc 1 54 0
	movq	-352(%rbp), %rax
	addq	$8, %rax
	movq	(%rax), %rax
	movq	%rax, %rdi
	call	gethostbyname
	movq	%rax, -312(%rbp)
	.loc 1 57 0
	cmpq	$0, -312(%rbp)
	jne	.L5
	.loc 1 58 0
	movq	stderr(%rip), %rax
	movq	%rax, %rcx
	movl	$20, %edx
	movl	$1, %esi
	movl	$.LC2, %edi
	call	fwrite
	.loc 1 59 0
	movl	$0, %edi
	call	exit
.L5:
	.loc 1 63 0
	leaq	-304(%rbp), %rax
	movl	$16, %edx
	movl	$0, %esi
	movq	%rax, %rdi
	call	memset
	.loc 1 66 0
	movw	$2, -304(%rbp)
	.loc 1 69 0
	movq	-312(%rbp), %rax
	movl	20(%rax), %eax
	movslq	%eax, %rdx
	movq	-312(%rbp), %rax
	movq	24(%rax), %rax
	movq	(%rax), %rax
	leaq	-304(%rbp), %rcx
	addq	$4, %rcx
	movq	%rax, %rsi
	movq	%rcx, %rdi
	call	memcpy
	.loc 1 72 0
	movl	-324(%rbp), %eax
	movzwl	%ax, %eax
	movl	%eax, %edi
	call	htons
	movw	%ax, -302(%rbp)
	.loc 1 75 0
	leaq	-304(%rbp), %rcx
	movl	-320(%rbp), %eax
	movl	$16, %edx
	movq	%rcx, %rsi
	movl	%eax, %edi
	call	connect
	testl	%eax, %eax
	jns	.L6
	.loc 1 77 0
	movl	$.LC3, %edi
	call	error
.L6:
	.loc 1 80 0
	movl	$.LC4, %edi
	movl	$0, %eax
	call	printf
	.loc 1 83 0
	leaq	-288(%rbp), %rax
	movl	$256, %edx
	movl	$0, %esi
	movq	%rax, %rdi
	call	memset
	.loc 1 86 0
	movq	stdin(%rip), %rdx
	leaq	-288(%rbp), %rax
	movl	$255, %esi
	movq	%rax, %rdi
	call	fgets
	.loc 1 89 0
	leaq	-288(%rbp), %rax
	movq	%rax, %rdi
	call	strlen
	movq	%rax, %rdx
	leaq	-288(%rbp), %rcx
	movl	-320(%rbp), %eax
	movq	%rcx, %rsi
	movl	%eax, %edi
	movl	$0, %eax
	call	write
	movl	%eax, -316(%rbp)
	.loc 1 92 0
	cmpl	$0, -316(%rbp)
	jns	.L7
	.loc 1 94 0
	movl	$.LC5, %edi
	call	error
.L7:
	.loc 1 98 0
	leaq	-288(%rbp), %rax
	movl	$256, %edx
	movl	$0, %esi
	movq	%rax, %rdi
	call	memset
	.loc 1 101 0
	leaq	-288(%rbp), %rcx
	movl	-320(%rbp), %eax
	movl	$255, %edx
	movq	%rcx, %rsi
	movl	%eax, %edi
	movl	$0, %eax
	call	read
	movl	%eax, -316(%rbp)
	.loc 1 104 0
	cmpl	$0, -316(%rbp)
	jns	.L8
	.loc 1 106 0
	movl	$.LC6, %edi
	call	error
.L8:
	.loc 1 110 0
	leaq	-288(%rbp), %rax
	movq	%rax, %rdi
	call	puts
	.loc 1 113 0
	leaq	-288(%rbp), %rax
	movl	$256, %edx
	movl	$0, %esi
	movq	%rax, %rdi
	call	memset
	.loc 1 116 0
	leaq	-288(%rbp), %rcx
	movl	-320(%rbp), %eax
	movl	$255, %edx
	movq	%rcx, %rsi
	movl	%eax, %edi
	movl	$0, %eax
	call	read
	movl	%eax, -316(%rbp)
	.loc 1 119 0
	cmpl	$0, -316(%rbp)
	jns	.L9
	.loc 1 121 0
	movl	$.LC6, %edi
	call	error
.L9:
	.loc 1 125 0
	leaq	-288(%rbp), %rax
	movq	%rax, %rdi
	call	puts
	.loc 1 127 0
	movl	$0, %eax
	.loc 1 128 0
	movq	-24(%rbp), %rbx
	xorq	%fs:40, %rbx
	je	.L11
	call	__stack_chk_fail
.L11:
	addq	$344, %rsp
	popq	%rbx
	popq	%rbp
	.cfi_def_cfa 7, 8
	ret
	.cfi_endproc
.LFE3:
	.size	main, .-main
.Letext0:
	.file 2 "/usr/lib/gcc/x86_64-linux-gnu/4.8/include/stddef.h"
	.file 3 "/usr/include/x86_64-linux-gnu/bits/types.h"
	.file 4 "/usr/include/libio.h"
	.file 5 "/usr/include/x86_64-linux-gnu/bits/sockaddr.h"
	.file 6 "/usr/include/x86_64-linux-gnu/bits/socket.h"
	.file 7 "/usr/include/stdint.h"
	.file 8 "/usr/include/netinet/in.h"
	.file 9 "/usr/include/netdb.h"
	.file 10 "/usr/include/stdio.h"
	.file 11 "/usr/include/x86_64-linux-gnu/bits/socket_type.h"
	.section	.note.GNU-stack,"",@progbits
